target datalayout = "e-m:e-p270:32:32-p271:32:32-p272:64:64-i64:64-i128:128-f80:128-n8:16:32:64-S128"
target triple = "x86_64-pc-linux-gnu"

%struct.lua_State = type { i8, i8, i8, i8, i8, i8, i8, ptr, ptr, ptr, ptr, ptr, ptr, ptr, ptr, i32, i32, i16, i16, i32, ptr, ptr, ptr, ptr, ptr }
%struct.global_State = type { %struct.stringtable, ptr, ptr, i8, i8, ptr, ptr, ptr, i64, i64, i32, i32, i32, [40 x ptr], [40 x ptr], ptr, ptr, ptr, [256 x i64], ptr, %struct.UpVal, [11 x ptr], [11 x ptr], [21 x ptr], %struct.lua_TValue, %struct.lua_TValue, i32, ptr, i64, [4 x i64], %struct.lua_Callbacks, %struct.lua_ExecutionCallbacks, [128 x ptr], [128 x ptr], [128 x ptr], %struct.GCStats }
%struct.stringtable = type { ptr, i32, i32 }
%struct.UpVal = type { i8, i8, i8, i8, ptr, %union.anon }
%union.anon = type { %struct.anon }
%struct.anon = type { ptr, ptr, ptr }
%struct.lua_TValue = type { %union.Value, [1 x i32], i32 }
%union.Value = type { ptr }
%struct.lua_Callbacks = type { ptr, ptr, ptr, ptr, ptr, ptr, ptr, ptr, ptr }
%struct.lua_ExecutionCallbacks = type { ptr, ptr, ptr, ptr, ptr, ptr, ptr }
%struct.GCStats = type { [32 x i32], i32, i32, i64, i64, i64, double, double, double }
%struct.CallInfo = type { ptr, ptr, ptr, ptr, i32, i32 }

; Function Attrs: mustprogress uwtable
define internal void @_ZL10stack_initP9lua_StateS0_(ptr noundef %0, ptr noundef %1) #0 {
  %3 = alloca ptr, align 8
  %4 = alloca ptr, align 8
  %5 = alloca ptr, align 8
  %6 = alloca i32, align 4
  store ptr %0, ptr %3, align 8
  store ptr %1, ptr %4, align 8
  %7 = load ptr, ptr %4, align 8
  %8 = load ptr, ptr %3, align 8
  %9 = getelementptr inbounds %struct.lua_State, ptr %8, i32 0, i32 2
  %10 = load i8, ptr %9, align 2
  %11 = call noundef ptr @_Z9luaM_new_P9lua_Statemh(ptr noundef %7, i64 noundef 320, i8 noundef zeroext %10)
  %12 = load ptr, ptr %3, align 8
  %13 = getelementptr inbounds %struct.lua_State, ptr %12, i32 0, i32 14
  store ptr %11, ptr %13, align 8
  %14 = load ptr, ptr %3, align 8
  %15 = getelementptr inbounds %struct.lua_State, ptr %14, i32 0, i32 14
  %16 = load ptr, ptr %15, align 8
  %17 = load ptr, ptr %3, align 8
  %18 = getelementptr inbounds %struct.lua_State, ptr %17, i32 0, i32 10
  store ptr %16, ptr %18, align 8
  %19 = load ptr, ptr %3, align 8
  %20 = getelementptr inbounds %struct.lua_State, ptr %19, i32 0, i32 16
  store i32 8, ptr %20, align 4
  %21 = load ptr, ptr %3, align 8
  %22 = getelementptr inbounds %struct.lua_State, ptr %21, i32 0, i32 14
  %23 = load ptr, ptr %22, align 8
  %24 = load ptr, ptr %3, align 8
  %25 = getelementptr inbounds %struct.lua_State, ptr %24, i32 0, i32 16
  %26 = load i32, ptr %25, align 4
  %27 = sext i32 %26 to i64
  %28 = getelementptr inbounds %struct.CallInfo, ptr %23, i64 %27
  %29 = getelementptr inbounds %struct.CallInfo, ptr %28, i64 -1
  %30 = load ptr, ptr %3, align 8
  %31 = getelementptr inbounds %struct.lua_State, ptr %30, i32 0, i32 13
  store ptr %29, ptr %31, align 8
  %32 = load ptr, ptr %4, align 8
  %33 = load ptr, ptr %3, align 8
  %34 = getelementptr inbounds %struct.lua_State, ptr %33, i32 0, i32 2
  %35 = load i8, ptr %34, align 2
  %36 = call noundef ptr @_Z9luaM_new_P9lua_Statemh(ptr noundef %32, i64 noundef 720, i8 noundef zeroext %35)
  %37 = load ptr, ptr %3, align 8
  %38 = getelementptr inbounds %struct.lua_State, ptr %37, i32 0, i32 12
  store ptr %36, ptr %38, align 8
  %39 = load ptr, ptr %3, align 8
  %40 = getelementptr inbounds %struct.lua_State, ptr %39, i32 0, i32 15
  store i32 45, ptr %40, align 8
  %41 = load ptr, ptr %3, align 8
  %42 = getelementptr inbounds %struct.lua_State, ptr %41, i32 0, i32 12
  %43 = load ptr, ptr %42, align 8
  store ptr %43, ptr %5, align 8
  store i32 0, ptr %6, align 4
  br label %44

44:                                               ; preds = %53, %2
  %45 = load i32, ptr %6, align 4
  %46 = icmp slt i32 %45, 45
  br i1 %46, label %47, label %56

47:                                               ; preds = %44
  %48 = load ptr, ptr %5, align 8
  %49 = load i32, ptr %6, align 4
  %50 = sext i32 %49 to i64
  %51 = getelementptr inbounds %struct.lua_TValue, ptr %48, i64 %50
  %52 = getelementptr inbounds %struct.lua_TValue, ptr %51, i32 0, i32 2
  store i32 0, ptr %52, align 4
  br label %53

53:                                               ; preds = %47
  %54 = load i32, ptr %6, align 4
  %55 = add nsw i32 %54, 1
  store i32 %55, ptr %6, align 4
  br label %44, !llvm.loop !5

56:                                               ; preds = %44
  %57 = load ptr, ptr %5, align 8
  %58 = load ptr, ptr %3, align 8
  %59 = getelementptr inbounds %struct.lua_State, ptr %58, i32 0, i32 7
  store ptr %57, ptr %59, align 8
  %60 = load ptr, ptr %5, align 8
  %61 = load ptr, ptr %3, align 8
  %62 = getelementptr inbounds %struct.lua_State, ptr %61, i32 0, i32 15
  %63 = load i32, ptr %62, align 8
  %64 = sub nsw i32 %63, 5
  %65 = sext i32 %64 to i64
  %66 = getelementptr inbounds %struct.lua_TValue, ptr %60, i64 %65
  %67 = load ptr, ptr %3, align 8
  %68 = getelementptr inbounds %struct.lua_State, ptr %67, i32 0, i32 11
  store ptr %66, ptr %68, align 8
  %69 = load ptr, ptr %3, align 8
  %70 = getelementptr inbounds %struct.lua_State, ptr %69, i32 0, i32 7
  %71 = load ptr, ptr %70, align 8
  %72 = load ptr, ptr %3, align 8
  %73 = getelementptr inbounds %struct.lua_State, ptr %72, i32 0, i32 10
  %74 = load ptr, ptr %73, align 8
  %75 = getelementptr inbounds %struct.CallInfo, ptr %74, i32 0, i32 1
  store ptr %71, ptr %75, align 8
  %76 = load ptr, ptr %3, align 8
  %77 = getelementptr inbounds %struct.lua_State, ptr %76, i32 0, i32 7
  %78 = load ptr, ptr %77, align 8
  %79 = getelementptr inbounds %struct.lua_TValue, ptr %78, i32 1
  store ptr %79, ptr %77, align 8
  %80 = getelementptr inbounds %struct.lua_TValue, ptr %78, i32 0, i32 2
  store i32 0, ptr %80, align 4
  %81 = load ptr, ptr %3, align 8
  %82 = getelementptr inbounds %struct.lua_State, ptr %81, i32 0, i32 7
  %83 = load ptr, ptr %82, align 8
  %84 = load ptr, ptr %3, align 8
  %85 = getelementptr inbounds %struct.lua_State, ptr %84, i32 0, i32 10
  %86 = load ptr, ptr %85, align 8
  %87 = getelementptr inbounds %struct.CallInfo, ptr %86, i32 0, i32 0
  store ptr %83, ptr %87, align 8
  %88 = load ptr, ptr %3, align 8
  %89 = getelementptr inbounds %struct.lua_State, ptr %88, i32 0, i32 8
  store ptr %83, ptr %89, align 8
  %90 = load ptr, ptr %3, align 8
  %91 = getelementptr inbounds %struct.lua_State, ptr %90, i32 0, i32 7
  %92 = load ptr, ptr %91, align 8
  %93 = getelementptr inbounds %struct.lua_TValue, ptr %92, i64 20
  %94 = load ptr, ptr %3, align 8
  %95 = getelementptr inbounds %struct.lua_State, ptr %94, i32 0, i32 10
  %96 = load ptr, ptr %95, align 8
  %97 = getelementptr inbounds %struct.CallInfo, ptr %96, i32 0, i32 2
  store ptr %93, ptr %97, align 8
  ret void
}

; Function Attrs: mustprogress nounwind uwtable
define internal void @_ZL13preinit_stateP9lua_StateP12global_State(ptr noundef %0, ptr noundef %1) #2 {
  %3 = alloca ptr, align 8
  %4 = alloca ptr, align 8
  store ptr %0, ptr %3, align 8
  store ptr %1, ptr %4, align 8
  %5 = load ptr, ptr %4, align 8
  %6 = load ptr, ptr %3, align 8
  %7 = getelementptr inbounds %struct.lua_State, ptr %6, i32 0, i32 9
  store ptr %5, ptr %7, align 8
  %8 = load ptr, ptr %3, align 8
  %9 = getelementptr inbounds %struct.lua_State, ptr %8, i32 0, i32 12
  store ptr null, ptr %9, align 8
  %10 = load ptr, ptr %3, align 8
  %11 = getelementptr inbounds %struct.lua_State, ptr %10, i32 0, i32 15
  store i32 0, ptr %11, align 8
  %12 = load ptr, ptr %3, align 8
  %13 = getelementptr inbounds %struct.lua_State, ptr %12, i32 0, i32 20
  store ptr null, ptr %13, align 8
  %14 = load ptr, ptr %3, align 8
  %15 = getelementptr inbounds %struct.lua_State, ptr %14, i32 0, i32 21
  store ptr null, ptr %15, align 8
  %16 = load ptr, ptr %3, align 8
  %17 = getelementptr inbounds %struct.lua_State, ptr %16, i32 0, i32 16
  store i32 0, ptr %17, align 4
  %18 = load ptr, ptr %3, align 8
  %19 = getelementptr inbounds %struct.lua_State, ptr %18, i32 0, i32 18
  store i16 0, ptr %19, align 2
  %20 = load ptr, ptr %3, align 8
  %21 = getelementptr inbounds %struct.lua_State, ptr %20, i32 0, i32 17
  store i16 0, ptr %21, align 8
  %22 = load ptr, ptr %3, align 8
  %23 = getelementptr inbounds %struct.lua_State, ptr %22, i32 0, i32 3
  store i8 0, ptr %23, align 1
  %24 = load ptr, ptr %3, align 8
  %25 = getelementptr inbounds %struct.lua_State, ptr %24, i32 0, i32 10
  store ptr null, ptr %25, align 8
  %26 = load ptr, ptr %3, align 8
  %27 = getelementptr inbounds %struct.lua_State, ptr %26, i32 0, i32 14
  store ptr null, ptr %27, align 8
  %28 = load ptr, ptr %3, align 8
  %29 = getelementptr inbounds %struct.lua_State, ptr %28, i32 0, i32 23
  store ptr null, ptr %29, align 8
  %30 = load ptr, ptr %3, align 8
  %31 = getelementptr inbounds %struct.lua_State, ptr %30, i32 0, i32 19
  store i32 0, ptr %31, align 4
  %32 = load ptr, ptr %3, align 8
  %33 = getelementptr inbounds %struct.lua_State, ptr %32, i32 0, i32 6
  store i8 0, ptr %33, align 2
  %34 = load ptr, ptr %3, align 8
  %35 = getelementptr inbounds %struct.lua_State, ptr %34, i32 0, i32 5
  store i8 0, ptr %35, align 1
  %36 = load ptr, ptr %3, align 8
  %37 = getelementptr inbounds %struct.lua_State, ptr %36, i32 0, i32 4
  store i8 0, ptr %37, align 4
  %38 = load ptr, ptr %3, align 8
  %39 = getelementptr inbounds %struct.lua_State, ptr %38, i32 0, i32 24
  store ptr null, ptr %39, align 8
  ret void
}

; Function Attrs: mustprogress uwtable
define hidden noundef ptr @_Z14luaE_newthreadP9lua_State(ptr noundef %0) #0 {
  %2 = alloca ptr, align 8
  %3 = alloca ptr, align 8
  store ptr %0, ptr %2, align 8
  %4 = load ptr, ptr %2, align 8
  %5 = load ptr, ptr %2, align 8
  %6 = getelementptr inbounds %struct.lua_State, ptr %5, i32 0, i32 4
  %7 = load i8, ptr %6, align 4
  %8 = call noundef ptr @_Z12luaM_newgco_P9lua_Statemh(ptr noundef %4, i64 noundef 128, i8 noundef zeroext %7)
  store ptr %8, ptr %3, align 8
  %9 = load ptr, ptr %2, align 8
  %10 = getelementptr inbounds %struct.lua_State, ptr %9, i32 0, i32 9
  %11 = load ptr, ptr %10, align 8
  %12 = getelementptr inbounds %struct.global_State, ptr %11, i32 0, i32 3
  %13 = load i8, ptr %12, align 8
  %14 = zext i8 %13 to i32
  %15 = and i32 %14, 3
  %16 = trunc i32 %15 to i8
  %17 = load ptr, ptr %3, align 8
  %18 = getelementptr inbounds %struct.lua_State, ptr %17, i32 0, i32 1
  store i8 %16, ptr %18, align 1
  %19 = load ptr, ptr %3, align 8
  %20 = getelementptr inbounds %struct.lua_State, ptr %19, i32 0, i32 0
  store i8 9, ptr %20, align 8
  %21 = load ptr, ptr %2, align 8
  %22 = getelementptr inbounds %struct.lua_State, ptr %21, i32 0, i32 4
  %23 = load i8, ptr %22, align 4
  %24 = load ptr, ptr %3, align 8
  %25 = getelementptr inbounds %struct.lua_State, ptr %24, i32 0, i32 2
  store i8 %23, ptr %25, align 2
  %26 = load ptr, ptr %3, align 8
  %27 = load ptr, ptr %2, align 8
  %28 = getelementptr inbounds %struct.lua_State, ptr %27, i32 0, i32 9
  %29 = load ptr, ptr %28, align 8
  call void @_ZL13preinit_stateP9lua_StateP12global_State(ptr noundef %26, ptr noundef %29)
  %30 = load ptr, ptr %2, align 8
  %31 = getelementptr inbounds %struct.lua_State, ptr %30, i32 0, i32 4
  %32 = load i8, ptr %31, align 4
  %33 = load ptr, ptr %3, align 8
  %34 = getelementptr inbounds %struct.lua_State, ptr %33, i32 0, i32 4
  store i8 %32, ptr %34, align 4
  %35 = load ptr, ptr %3, align 8
  %36 = load ptr, ptr %2, align 8
  call void @_ZL10stack_initP9lua_StateS0_(ptr noundef %35, ptr noundef %36)
  %37 = load ptr, ptr %2, align 8
  %38 = getelementptr inbounds %struct.lua_State, ptr %37, i32 0, i32 20
  %39 = load ptr, ptr %38, align 8
  %40 = load ptr, ptr %3, align 8
  %41 = getelementptr inbounds %struct.lua_State, ptr %40, i32 0, i32 20
  store ptr %39, ptr %41, align 8
  %42 = load ptr, ptr %2, align 8
  %43 = getelementptr inbounds %struct.lua_State, ptr %42, i32 0, i32 6
  %44 = load i8, ptr %43, align 2
  %45 = trunc i8 %44 to i1
  %46 = load ptr, ptr %3, align 8
  %47 = getelementptr inbounds %struct.lua_State, ptr %46, i32 0, i32 6
  %48 = zext i1 %45 to i8
  store i8 %48, ptr %47, align 2
  %49 = load ptr, ptr %3, align 8
  ret ptr %49
}