; Function Attrs: mustprogress uwtable
define hidden noundef ptr @_Z14luaE_newthreadP9lua_State(ptr noundef %0) local_unnamed_addr #0 {
  %2 = getelementptr inbounds nuw i8, ptr %0, i64 4
  %3 = load i8, ptr %2, align 4
  %4 = tail call noundef ptr @_Z12luaM_newgco_P9lua_Statemh(ptr noundef %0, i64 noundef 128, i8 noundef zeroext %3)
  %5 = getelementptr inbounds nuw i8, ptr %0, i64 24
  %6 = load ptr, ptr %5, align 8
  %7 = getelementptr inbounds nuw i8, ptr %6, i64 32
  %8 = load i8, ptr %7, align 8
  %9 = and i8 %8, 3
  %10 = getelementptr inbounds nuw i8, ptr %4, i64 1
  store i8 %9, ptr %10, align 1
  store i8 9, ptr %4, align 8
  %11 = load i8, ptr %2, align 4
  %12 = getelementptr inbounds nuw i8, ptr %4, i64 2
  store i8 %11, ptr %12, align 2
  %13 = load ptr, ptr %5, align 8
  %14 = getelementptr inbounds nuw i8, ptr %4, i64 24
  store ptr %13, ptr %14, align 8
  %15 = getelementptr inbounds nuw i8, ptr %4, i64 48
  store ptr null, ptr %15, align 8
  %16 = getelementptr inbounds nuw i8, ptr %4, i64 3
  %17 = getelementptr inbounds nuw i8, ptr %4, i64 32
  store ptr null, ptr %17, align 8
  %18 = getelementptr inbounds nuw i8, ptr %4, i64 64
  %19 = getelementptr inbounds nuw i8, ptr %4, i64 112
  store i32 0, ptr %16, align 1
  tail call void @llvm.memset.p0.i64(ptr noundef nonnull align 8 dereferenceable(40) %18, i8 0, i64 40, i1 false)
  tail call void @llvm.memset.p0.i64(ptr noundef nonnull align 8 dereferenceable(16) %19, i8 0, i64 16, i1 false)
  %20 = load i8, ptr %2, align 4
  %21 = getelementptr inbounds nuw i8, ptr %4, i64 4
  store i8 %20, ptr %21, align 4
  %22 = tail call noundef ptr @_Z9luaM_new_P9lua_Statemh(ptr noundef %0, i64 noundef 320, i8 noundef zeroext %11)
  store ptr %22, ptr %18, align 8
  store ptr %22, ptr %17, align 8
  %23 = getelementptr inbounds nuw i8, ptr %4, i64 76
  store i32 8, ptr %23, align 4
  %24 = getelementptr inbounds nuw i8, ptr %22, i64 280
  %25 = getelementptr inbounds nuw i8, ptr %4, i64 56
  store ptr %24, ptr %25, align 8
  %26 = load i8, ptr %12, align 2
  %27 = tail call noundef ptr @_Z9luaM_new_P9lua_Statemh(ptr noundef %0, i64 noundef 720, i8 noundef zeroext %26)
  store ptr %27, ptr %15, align 8
  %28 = getelementptr inbounds nuw i8, ptr %4, i64 72
  store i32 45, ptr %28, align 8
  br label %29

29:                                               ; preds = %29, %1
  %indvars.iv.i = phi i64 [ 0, %1 ], [ %indvars.iv.next.i, %29 ]
  %30 = getelementptr inbounds nuw %struct.lua_TValue, ptr %27, i64 %indvars.iv.i, i32 2
  store i32 0, ptr %30, align 4
  %indvars.iv.next.i = add nuw nsw i64 %indvars.iv.i, 1
  %exitcond.not.i = icmp eq i64 %indvars.iv.next.i, 45
  br i1 %exitcond.not.i, label %_ZL10stack_initP9lua_StateS0_.exit, label %29, !llvm.loop !5

_ZL10stack_initP9lua_StateS0_.exit:               ; preds = %29
  %31 = getelementptr inbounds nuw i8, ptr %4, i64 8
  store ptr %27, ptr %31, align 8
  %32 = load i32, ptr %28, align 8
  %33 = sext i32 %32 to i64
  %34 = getelementptr %struct.lua_TValue, ptr %27, i64 %33
  %35 = getelementptr i8, ptr %34, i64 -80
  %36 = getelementptr inbounds nuw i8, ptr %4, i64 40
  store ptr %35, ptr %36, align 8
  %37 = load ptr, ptr %17, align 8
  %38 = getelementptr inbounds nuw i8, ptr %37, i64 8
  store ptr %27, ptr %38, align 8
  %39 = load ptr, ptr %31, align 8
  %40 = getelementptr inbounds nuw i8, ptr %39, i64 16
  store ptr %40, ptr %31, align 8
  %41 = getelementptr inbounds nuw i8, ptr %39, i64 12
  store i32 0, ptr %41, align 4
  %42 = load ptr, ptr %31, align 8
  %43 = load ptr, ptr %17, align 8
  store ptr %42, ptr %43, align 8
  %44 = getelementptr inbounds nuw i8, ptr %4, i64 16
  store ptr %42, ptr %44, align 8
  %45 = getelementptr inbounds nuw i8, ptr %42, i64 320
  %46 = load ptr, ptr %17, align 8
  %47 = getelementptr inbounds nuw i8, ptr %46, i64 16
  store ptr %45, ptr %47, align 8
  %48 = getelementptr inbounds nuw i8, ptr %0, i64 88
  %49 = load ptr, ptr %48, align 8
  %50 = getelementptr inbounds nuw i8, ptr %4, i64 88
  store ptr %49, ptr %50, align 8
  %51 = getelementptr inbounds nuw i8, ptr %0, i64 6
  %52 = load i8, ptr %51, align 2
  %53 = getelementptr inbounds nuw i8, ptr %4, i64 6
  %54 = and i8 %52, 1
  store i8 %54, ptr %53, align 2
  ret ptr %4
}